target datalayout = "e-m:e-p270:32:32-p271:32:32-p272:64:64-i64:64-i128:128-f80:128-n8:16:32:64-S128"
target triple = "x86_64-pc-linux-gnu"

%"struct.Luau::BlockedTypePack" = type { i64, ptr }

@_ZN4Luau15BlockedTypePack9nextIndexE = dso_local global i64 0, align 8

; Function Attrs: mustprogress nounwind uwtable
define dso_local void @_ZN4Luau15BlockedTypePackC2Ev(ptr noundef nonnull align 8 dereferenceable(16) %0) unnamed_addr #7 align 2 {
  %2 = alloca ptr, align 8
  store ptr %0, ptr %2, align 8, !tbaa !39
  %3 = load ptr, ptr %2, align 8
  %4 = getelementptr inbounds nuw %"struct.Luau::BlockedTypePack", ptr %3, i32 0, i32 0
  %5 = load i64, ptr @_ZN4Luau15BlockedTypePack9nextIndexE, align 8, !tbaa !41
  %6 = add i64 %5, 1
  store i64 %6, ptr @_ZN4Luau15BlockedTypePack9nextIndexE, align 8, !tbaa !41
  store i64 %6, ptr %4, align 8, !tbaa !42
  %7 = getelementptr inbounds nuw %"struct.Luau::BlockedTypePack", ptr %3, i32 0, i32 1
  store ptr null, ptr %7, align 8, !tbaa !45
  ret void
}