; Function Attrs: mustprogress nofree norecurse nosync nounwind willreturn memory(readwrite, argmem: write, inaccessiblemem: none) uwtable
define dso_local void @_ZN4Luau15BlockedTypePackC2Ev(ptr noundef nonnull writeonly align 8 captures(none) dereferenceable(16) initializes((0, 16)) %0) unnamed_addr #5 align 2 {
  %2 = load i64, ptr @_ZN4Luau15BlockedTypePack9nextIndexE, align 8, !tbaa !44
  %3 = add i64 %2, 1
  store i64 %3, ptr @_ZN4Luau15BlockedTypePack9nextIndexE, align 8, !tbaa !44
  store i64 %3, ptr %0, align 8, !tbaa !45
  %4 = getelementptr inbounds nuw i8, ptr %0, i64 8
  store ptr null, ptr %4, align 8, !tbaa !48
  ret void
}